; Function Attrs: mustprogress nounwind uwtable
define dso_local void @_ZN16btCollisionWorldD2Ev(ptr nocapture noundef nonnull align 8 dereferenceable(121) %this) unnamed_addr #1 align 2 personality ptr @__gxx_personality_v0 {
entry:
  store ptr getelementptr inbounds ({ [16 x ptr] }, ptr @_ZTV16btCollisionWorld, i64 0, i32 0, i64 2), ptr %this, align 8
  %m_size.i = getelementptr inbounds i8, ptr %this, i64 12
  %0 = load i32, ptr %m_size.i, align 4
  %cmp9 = icmp sgt i32 %0, 0
  br i1 %cmp9, label %for.body.lr.ph, label %for.end

for.body.lr.ph:                                   ; preds = %entry
  %m_data.i = getelementptr inbounds i8, ptr %this, i64 24
  %m_broadphasePairCache.i = getelementptr inbounds i8, ptr %this, i64 104
  %m_dispatcher1 = getelementptr inbounds i8, ptr %this, i64 40
  br label %for.body

for.body:                                         ; preds = %for.body.lr.ph, %for.inc
  %1 = phi i32 [ %0, %for.body.lr.ph ], [ %12, %for.inc ]
  %indvars.iv = phi i64 [ 0, %for.body.lr.ph ], [ %indvars.iv.next, %for.inc ]
  %2 = load ptr, ptr %m_data.i, align 8
  %arrayidx.i = getelementptr inbounds ptr, ptr %2, i64 %indvars.iv
  %3 = load ptr, ptr %arrayidx.i, align 8
  %m_broadphaseHandle.i = getelementptr inbounds i8, ptr %3, i64 192
  %4 = load ptr, ptr %m_broadphaseHandle.i, align 8
  %tobool.not = icmp eq ptr %4, null
  br i1 %tobool.not, label %for.inc, label %if.then

if.then:                                          ; preds = %for.body
  %5 = load ptr, ptr %m_broadphasePairCache.i, align 8
  %vtable = load ptr, ptr %5, align 8
  %vfn = getelementptr inbounds i8, ptr %vtable, i64 72
  %6 = load ptr, ptr %vfn, align 8
  %call10 = invoke noundef ptr %6(ptr noundef nonnull align 8 dereferenceable(8) %5)
          to label %invoke.cont9 unwind label %terminate.lpad

invoke.cont9:                                     ; preds = %if.then
  %7 = load ptr, ptr %m_dispatcher1, align 8
  %vtable11 = load ptr, ptr %call10, align 8
  %vfn12 = getelementptr inbounds i8, ptr %vtable11, i64 96
  %8 = load ptr, ptr %vfn12, align 8
  invoke void %8(ptr noundef nonnull align 8 dereferenceable(8) %call10, ptr noundef nonnull %4, ptr noundef %7)
          to label %invoke.cont13 unwind label %terminate.lpad

invoke.cont13:                                    ; preds = %invoke.cont9
  %9 = load ptr, ptr %m_broadphasePairCache.i, align 8
  %10 = load ptr, ptr %m_dispatcher1, align 8
  %vtable17 = load ptr, ptr %9, align 8
  %vfn18 = getelementptr inbounds i8, ptr %vtable17, i64 24
  %11 = load ptr, ptr %vfn18, align 8
  invoke void %11(ptr noundef nonnull align 8 dereferenceable(8) %9, ptr noundef nonnull %4, ptr noundef %10)
          to label %invoke.cont19 unwind label %terminate.lpad

invoke.cont19:                                    ; preds = %invoke.cont13
  store ptr null, ptr %m_broadphaseHandle.i, align 8
  %.pre = load i32, ptr %m_size.i, align 4
  br label %for.inc

for.inc:                                          ; preds = %for.body, %invoke.cont19
  %12 = phi i32 [ %1, %for.body ], [ %.pre, %invoke.cont19 ]
  %indvars.iv.next = add nuw nsw i64 %indvars.iv, 1
  %13 = sext i32 %12 to i64
  %cmp = icmp slt i64 %indvars.iv.next, %13
  br i1 %cmp, label %for.body, label %for.end, !llvm.loop !5

for.end:                                          ; preds = %for.inc, %entry
  %m_data.i.i.i = getelementptr inbounds i8, ptr %this, i64 24
  %14 = load ptr, ptr %m_data.i.i.i, align 8
  %tobool.not.i.i.i = icmp eq ptr %14, null
  br i1 %tobool.not.i.i.i, label %_ZN20btAlignedObjectArrayIP17btCollisionObjectED2Ev.exit, label %if.then.i.i.i

if.then.i.i.i:                                    ; preds = %for.end
  %m_ownsMemory.i.i.i = getelementptr inbounds i8, ptr %this, i64 32
  %15 = load i8, ptr %m_ownsMemory.i.i.i, align 8
  %16 = and i8 %15, 1
  %tobool2.not.i.i.i = icmp eq i8 %16, 0
  br i1 %tobool2.not.i.i.i, label %_ZN20btAlignedObjectArrayIP17btCollisionObjectED2Ev.exit, label %if.then3.i.i.i

if.then3.i.i.i:                                   ; preds = %if.then.i.i.i
  invoke void @_Z21btAlignedFreeInternalPv(ptr noundef nonnull %14)
          to label %_ZN20btAlignedObjectArrayIP17btCollisionObjectED2Ev.exit unwind label %terminate.lpad.i

terminate.lpad.i:                                 ; preds = %if.then3.i.i.i
  %17 = landingpad { ptr, i32 }
          catch ptr null
  %18 = extractvalue { ptr, i32 } %17, 0
  tail call void @__clang_call_terminate(ptr %18) #18
  unreachable

_ZN20btAlignedObjectArrayIP17btCollisionObjectED2Ev.exit: ; preds = %for.end, %if.then.i.i.i, %if.then3.i.i.i
  %m_ownsMemory.i1.i.i = getelementptr inbounds i8, ptr %this, i64 32
  store i8 1, ptr %m_ownsMemory.i1.i.i, align 8
  store ptr null, ptr %m_data.i.i.i, align 8
  store i32 0, ptr %m_size.i, align 4
  %m_capacity.i.i.i = getelementptr inbounds i8, ptr %this, i64 16
  store i32 0, ptr %m_capacity.i.i.i, align 8
  ret void

terminate.lpad:                                   ; preds = %invoke.cont13, %invoke.cont9, %if.then
  %19 = landingpad { ptr, i32 }
          catch ptr null
  %20 = extractvalue { ptr, i32 } %19, 0
  tail call void @__clang_call_terminate(ptr %20) #18
  unreachable
}